; Function Attrs: mustprogress nofree norecurse nosync nounwind willreturn memory(argmem: readwrite) uwtable
define void @_ZN8WasmEdge7FileMgr8testReadEm(ptr dead_on_unwind noalias writable writeonly sret(%"class.cxx20::expected") align 4 captures(none) initializes((0, 1), (4, 8)) %0, ptr noundef nonnull align 8 captures(none) dereferenceable(88) %1, i64 noundef %2) local_unnamed_addr #4 align 2 personality ptr @__gxx_personality_v0 {
  %4 = getelementptr inbounds nuw i8, ptr %1, i64 24
  %5 = load i64, ptr %4, align 8
  %6 = getelementptr inbounds nuw i8, ptr %1, i64 16
  %7 = load i64, ptr %6, align 8
  %8 = sub i64 %5, %7
  %9 = icmp ult i64 %8, %2
  br i1 %9, label %10, label %13

10:                                               ; preds = %3
  store i64 %5, ptr %6, align 8
  %11 = getelementptr inbounds nuw i8, ptr %1, i64 8
  store i64 %5, ptr %11, align 8
  store i32 258, ptr %1, align 8
  %12 = getelementptr inbounds nuw i8, ptr %0, i64 4
  store i32 258, ptr %12, align 4
  br label %14

13:                                               ; preds = %3
  store i64 0, ptr %0, align 4
  br label %14

14:                                               ; preds = %13, %10
  %.sink = phi i8 [ 0, %10 ], [ 1, %13 ]
  store i8 %.sink, ptr %0, align 4
  ret void
}